; Function Attrs: nofree norecurse nosync nounwind memory(read, inaccessiblemem: none) uwtable
define i32 @Gia_ManBuiltInSimPack(ptr noundef readonly captures(none) %0, ptr noundef readonly captures(none) %1) local_unnamed_addr #13 {
  %3 = getelementptr inbounds nuw i8, ptr %0, i64 812
  %4 = load i32, ptr %3, align 4, !tbaa !112
  %5 = icmp sgt i32 %4, 0
  br i1 %5, label %.preheader.lr.ph, label %._crit_edge

.preheader.lr.ph:                                 ; preds = %2
  %6 = getelementptr i8, ptr %1, i64 4
  %.val20 = load i32, ptr %6, align 4, !tbaa !34
  %7 = icmp sgt i32 %.val20, 0
  %8 = getelementptr i8, ptr %0, i64 832
  br i1 %7, label %.preheader.lr.ph.split.us, label %.preheader.lr.ph.split

.preheader.lr.ph.split.us:                        ; preds = %.preheader.lr.ph
  %9 = getelementptr i8, ptr %0, i64 848
  %10 = getelementptr i8, ptr %0, i64 816
  %11 = getelementptr i8, ptr %1, i64 8
  %.val21.us = load ptr, ptr %11, align 8, !tbaa !36
  %.val24.us = load i32, ptr %10, align 8, !tbaa !114
  %.val25.us = load ptr, ptr %9, align 8, !tbaa !120
  %12 = getelementptr i8, ptr %.val25.us, i64 8
  %.val25.val.us = load ptr, ptr %12, align 8, !tbaa !119
  %wide.trip.count = zext nneg i32 %.val20 to i64
  br label %.preheader.us

.preheader.us:                                    ; preds = %41, %.preheader.lr.ph.split.us
  %.01931.us = phi i32 [ 0, %.preheader.lr.ph.split.us ], [ %42, %41 ]
  %13 = lshr i32 %.01931.us, 6
  %14 = zext nneg i32 %13 to i64
  %invariant.gep.us = getelementptr i64, ptr %.val25.val.us, i64 %14
  %15 = and i32 %.01931.us, 63
  %16 = zext nneg i32 %15 to i64
  %17 = shl nuw i64 1, %16
  br label %18

18:                                               ; preds = %.preheader.us, %43
  %indvars.iv = phi i64 [ 0, %.preheader.us ], [ %indvars.iv.next, %43 ]
  %19 = getelementptr inbounds nuw i32, ptr %.val21.us, i64 %indvars.iv
  %20 = load i32, ptr %19, align 4, !tbaa !37
  %21 = ashr i32 %20, 1
  %22 = mul nsw i32 %21, %.val24.us
  %23 = sext i32 %22 to i64
  %gep.us = getelementptr i64, ptr %invariant.gep.us, i64 %23
  %24 = load i64, ptr %gep.us, align 8, !tbaa !121
  %25 = and i64 %24, %17
  %.not.us = icmp eq i64 %25, 0
  br i1 %.not.us, label %43, label %26

26:                                               ; preds = %18
  %27 = add nsw i32 %21, 1
  %.val23.us = load ptr, ptr %8, align 8, !tbaa !123
  %28 = getelementptr i8, ptr %.val23.us, i64 8
  %.val23.val.us = load ptr, ptr %28, align 8, !tbaa !119
  %29 = mul nsw i32 %27, %.val24.us
  %30 = sext i32 %29 to i64
  %31 = getelementptr inbounds i64, ptr %.val23.val.us, i64 %30
  %32 = getelementptr inbounds nuw i64, ptr %31, i64 %14
  %33 = load i64, ptr %32, align 8, !tbaa !121
  %34 = lshr i64 %33, %16
  %35 = trunc i64 %34 to i32
  %36 = xor i32 %20, %35
  %37 = and i32 %36, 1
  %38 = icmp eq i32 %37, 0
  br i1 %38, label %.critedge.us, label %43

.critedge.us:                                     ; preds = %26
  %39 = trunc nuw nsw i64 %indvars.iv to i32
  %40 = icmp eq i32 %.val20, %39
  br i1 %40, label %._crit_edge, label %41

41:                                               ; preds = %.critedge.us
  %42 = add nuw nsw i32 %.01931.us, 1
  %exitcond41.not = icmp eq i32 %42, %4
  br i1 %exitcond41.not, label %._crit_edge, label %.preheader.us, !llvm.loop !143

43:                                               ; preds = %26, %18
  %indvars.iv.next = add nuw nsw i64 %indvars.iv, 1
  %exitcond.not = icmp eq i64 %indvars.iv.next, %wide.trip.count
  br i1 %exitcond.not, label %._crit_edge, label %18, !llvm.loop !144

.preheader.lr.ph.split:                           ; preds = %.preheader.lr.ph
  %44 = icmp ne i32 %.val20, 0
  %spec.select = sext i1 %44 to i32
  br label %._crit_edge

._crit_edge:                                      ; preds = %.critedge.us, %41, %43, %.preheader.lr.ph.split, %2
  %.0 = phi i32 [ -1, %2 ], [ %spec.select, %.preheader.lr.ph.split ], [ %.01931.us, %43 ], [ -1, %41 ], [ %.01931.us, %.critedge.us ]
  ret i32 %.0
}